libpyside-python2.7.so.1.2 libpyside1.2 #MINVER#
 PySideClassInfoType@Base 1.0.3
 PySideMetaFunctionType@Base 1.0.0~beta3
 PySidePropertyType@Base 1.0.0~beta3
 PySideQFlagsNew@Base 1.0.8
 PySideQFlagsRichCompare@Base 1.0.8
 PySideSignalInstanceType@Base 1.0.0~beta3
 PySideSignalType@Base 1.0.0~beta3
 _ZN6PySide12MetaFunction9newObjectEP7QObjecti@Base 1.0.0~beta3
 _ZN6PySide13SignalManager10emitSignalEP7QObjectPKcP7_object@Base 1.0.0~beta3
 _ZN6PySide13SignalManager11qt_metacallEP7QObjectN11QMetaObject4CallEiPPv@Base 1.0.0~beta3
 _ZN6PySide13SignalManager13addGlobalSlotEPKcP7_object@Base 1.0.0~beta3
 _ZN6PySide13SignalManager14globalReceiverEP7QObjectP7_object@Base 1.0.6
 _ZN6PySide13SignalManager14globalReceiverEv@Base 1.0.0~beta3
 _ZN6PySide13SignalManager17hasConnectionWithEPK7QObject@Base 1.0.0~beta3
 _ZN6PySide13SignalManager17retriveMetaObjectEP7_object@Base 1.0.5
 _ZN6PySide13SignalManager18registerMetaMethodEP7QObjectPKcN11QMetaMethod10MethodTypeE@Base 1.0.0~beta3
 _ZN6PySide13SignalManager20callPythonMetaMethodERK11QMetaMethodPPvP7_objectb@Base 1.0.7
 _ZN6PySide13SignalManager20countConnectionsWithEPK7QObject@Base 1.0.6
 _ZN6PySide13SignalManager20notifyGlobalReceiverEP7QObject@Base 1.0.6
 _ZN6PySide13SignalManager21addGlobalSlotGetIndexEPKcP7_object@Base 1.0.5
 _ZN6PySide13SignalManager21releaseGlobalReceiverEPK7QObjectPS1_@Base 1.0.6
 _ZN6PySide13SignalManager26registerMetaMethodGetIndexEP7QObjectPKcN11QMetaMethod10MethodTypeE@Base 1.0.5
 _ZN6PySide13SignalManager27globalReceiverConnectNotifyEP7QObjecti@Base 1.0.0~beta3
 _ZN6PySide13SignalManager30globalReceiverDisconnectNotifyEP7QObjecti@Base 1.0.0~beta3
 _ZN6PySide13SignalManager5clearEv@Base 1.0.0~beta3
 _ZN6PySide13SignalManager8instanceEv@Base 1.0.0~beta3
 _ZN6PySide13SignalManagerC1Ev@Base 1.0.0~beta3
 _ZN6PySide13SignalManagerC2Ev@Base 1.0.0~beta3
 _ZN6PySide13SignalManagerD1Ev@Base 1.0.0~beta3
 _ZN6PySide13SignalManagerD2Ev@Base 1.0.0~beta3
 _ZN6PySide15DestroyListener10m_instanceE@Base 1.0.3
 _ZN6PySide15DestroyListener11qt_metacallEN11QMetaObject4CallEiPPv@Base 1.0.3
 _ZN6PySide15DestroyListener11qt_metacastEPKc@Base 1.0.3
 _ZN6PySide15DestroyListener16staticMetaObjectE@Base 1.0.3
 _ZN6PySide15DestroyListener17onObjectDestroyedEP7QObject@Base 1.0.3
 _ZN6PySide15DestroyListener6listenEP7QObject@Base 1.0.3
 _ZN6PySide15DestroyListener7destroyEv@Base 1.0.3
 _ZN6PySide15DestroyListener8instanceEv@Base 1.0.3
 _ZN6PySide15DestroyListenerC1EP7QObject@Base 1.0.3
 _ZN6PySide15DestroyListenerC2EP7QObject@Base 1.0.3
 _ZN6PySide15DestroyListenerD0Ev@Base 1.0.3
 _ZN6PySide15DestroyListenerD1Ev@Base 1.0.3
 _ZN6PySide15DestroyListenerD2Ev@Base 1.0.3
 _ZN6PySide15PyObjectWrapperC1EP7_object@Base 1.0.0~beta3
 _ZN6PySide15PyObjectWrapperC1ERKS0_@Base 1.0.0~beta3
 _ZN6PySide15PyObjectWrapperC1Ev@Base 1.0.0~beta3
 _ZN6PySide15PyObjectWrapperC2EP7_object@Base 1.0.0~beta3
 _ZN6PySide15PyObjectWrapperC2ERKS0_@Base 1.0.0~beta3
 _ZN6PySide15PyObjectWrapperC2Ev@Base 1.0.0~beta3
 _ZN6PySide15PyObjectWrapperD1Ev@Base 1.0.0~beta3
 _ZN6PySide15PyObjectWrapperD2Ev@Base 1.0.0~beta3
 _ZN6PySide15PyObjectWrapperaSERKS0_@Base 1.0.0~beta3
 _ZN6PySide16fillQtPropertiesEP7_objectPK11QMetaObjectS1_PPKcj@Base 1.0.0~beta3
 _ZN6PySide16getSizeOfQObjectEP13SbkObjectType@Base 1.0.5
 _ZN6PySide18initQObjectSubTypeEP13SbkObjectTypeP7_objectS3_@Base 1.0.0~beta3
 _ZN6PySide19runCleanupFunctionsEv@Base 1.0.0~beta3
 _ZN6PySide20getWrapperForQObjectEP7QObjectP13SbkObjectType@Base 1.2.1
 _ZN6PySide21initDynamicMetaObjectEP13SbkObjectTypePK11QMetaObject@Base 1.0.0~beta3
 _ZN6PySide21initDynamicMetaObjectEP13SbkObjectTypePK11QMetaObjectRKm@Base 1.0.5
 _ZN6PySide21nextQObjectMemoryAddrEv@Base 1.0.5
 _ZN6PySide22getMetaDataFromQObjectEP7QObjectP7_objectS3_@Base 1.0.0~beta3
 _ZN6PySide23destroyQCoreApplicationEv@Base 1.0.0~beta3
 _ZN6PySide23registerCleanupFunctionEPFvvE@Base 1.0.0~beta3
 _ZN6PySide24setNextQObjectMemoryAddrEPv@Base 1.0.5
 _ZN6PySide4initEP7_object@Base 1.0.0~beta3
 _ZN6PySide6QFlags6createEPKcP15PyNumberMethods@Base 1.0.9
 _ZN6PySide6QFlags8getValueEP18PySideQFlagsObject@Base 1.0.8
 _ZN6PySide6QFlags9newObjectElP11_typeobject@Base 1.0.8
 _ZN6PySide6Signal10initializeEP12PySideSignalP7_objectS4_@Base 1.0.0~beta3
 _ZN6PySide6Signal10isQtSignalEPKc@Base 1.0.0~beta3
 _ZN6PySide6Signal12getSignatureEP20PySideSignalInstance@Base 1.0.0~beta3
 _ZN6PySide6Signal13checkQtSignalEPKc@Base 1.0.0~beta3
 _ZN6PySide6Signal15registerSignalsEP13SbkObjectTypePK11QMetaObject@Base 1.0.5+git33~g9d4b14d
 _ZN6PySide6Signal18addSignalToWrapperEP13SbkObjectTypePKcP12PySideSignal@Base 1.0.0~beta3
 _ZN6PySide6Signal18updateSourceObjectEP7_object@Base 1.0.0~beta3
 _ZN6PySide6Signal19newObjectFromMethodEP7_objectRK5QListI11QMetaMethodE@Base 1.0.0~beta3
 _ZN6PySide6Signal20getCallbackSignatureEPKcP7QObjectP7_objectb@Base 1.0.0~beta3
 _ZN6PySide6Signal9checkTypeEP7_object@Base 1.0.3
 _ZN6PySide6Signal9getObjectEP20PySideSignalInstance@Base 1.0.0~beta3
 _ZN6PySide6Signal9newObjectEPKcz@Base 1.0.0~beta3
 _ZN6PySide7WeakRef6createEP7_objectPFvPvES3_@Base 1.0.3
 _ZN6PySide8Property11setTypeNameEP14PySidePropertyPKc@Base 1.0.0~beta3
 _ZN6PySide8Property11setUserDataEP14PySidePropertyPv@Base 1.0.0~beta3
 _ZN6PySide8Property13getNotifyNameEP14PySideProperty@Base 1.0.0~beta3
 _ZN6PySide8Property14isPropertyTypeEP7_object@Base 1.0.0~beta3
 _ZN6PySide8Property18setMetaCallHandlerEP14PySidePropertyPFvS2_P7_objectN11QMetaObject4CallEPPvE@Base 1.0.0~beta3
 _ZN6PySide8Property8getValueEP14PySidePropertyP7_object@Base 1.0.0~beta3
 _ZN6PySide8Property8setValueEP14PySidePropertyP7_objectS4_@Base 1.0.0~beta3
 _ZN6PySide8Property8userDataEP14PySideProperty@Base 1.0.0~beta3
 _ZN6PySide8Property9checkTypeEP7_object@Base 1.0.3
 _ZN6PySide8Property9getObjectEP7_objectS2_@Base 1.0.0~beta3
 _ZN6PySide8inheritsEP11_typeobjectPKc@Base 1.0.4
 _ZN6PySide9ClassInfo6getMapEP15PySideClassInfo@Base 1.0.3
 _ZN6PySide9ClassInfo9checkTypeEP7_object@Base 1.0.3
 _ZN6PySidelsER11QDataStreamRKNS_15PyObjectWrapperE@Base 1.0.2
 _ZN6PySidersER11QDataStreamRNS_15PyObjectWrapperE@Base 1.0.2
 _ZNK6PySide13SignalManager23globalReceiverSlotIndexEP7QObjectPKc@Base 1.0.6
 _ZNK6PySide15DestroyListener10metaObjectEv@Base 1.0.3
 _ZNK6PySide15PyObjectWrappercvP7_objectEv@Base 1.0.0~beta3
 _ZTIN6PySide15DestroyListenerE@Base 1.0.3
 _ZTSN6PySide15DestroyListenerE@Base 1.0.3
 _ZTVN6PySide15DestroyListenerE@Base 1.0.3
