libshiboken-python2.7.so.1.2 libshiboken1.2v5 #MINVER#
 SbkDeallocWrapper@Base 1.0.0~beta2
 SbkDeallocWrapperWithPrivateDtor@Base 1.0.0~beta2
 SbkEnumType_Type@Base 1.0.0~beta2
 SbkObjectTpNew@Base 1.0.0~beta2
 SbkObjectType_Type@Base 1.0.0~beta2
 SbkObject_Type@Base 1.0.0~beta2
 _ZN8Shiboken10ObjectType10isUserTypeEP11_typeobject@Base 1.0.0~beta2
 _ZN8Shiboken10ObjectType15getOriginalNameEP13SbkObjectType@Base 1.0.0~beta2
 _ZN8Shiboken10ObjectType15getTypeUserDataEP13SbkObjectType@Base 1.0.0~beta2
 _ZN8Shiboken10ObjectType15initPrivateDataEP13SbkObjectType@Base 1.0.0~beta2
 _ZN8Shiboken10ObjectType15setCastFunctionEP13SbkObjectTypePFPvS3_S2_E@Base 1.0.0~beta2
 _ZN8Shiboken10ObjectType15setOriginalNameEP13SbkObjectTypePKc@Base 1.0.0~beta2
 _ZN8Shiboken10ObjectType15setTypeUserDataEP13SbkObjectTypePvPFvS3_E@Base 1.0.0~beta2
 _ZN8Shiboken10ObjectType18canCallConstructorEP11_typeobjectS2_@Base 1.0.0~beta2
 _ZN8Shiboken10ObjectType18setSubTypeInitHookEP13SbkObjectTypePFvS2_P7_objectS4_E@Base 1.0.0~beta2
 _ZN8Shiboken10ObjectType20introduceWrapperTypeEP7_objectPKcS4_P13SbkObjectTypePFvPvES6_S2_b@Base 1.0.6
 _ZN8Shiboken10ObjectType21isExternalConvertibleEP13SbkObjectTypeP7_object@Base 1.0.0~beta2
 _ZN8Shiboken10ObjectType21setDestructorFunctionEP13SbkObjectTypePFvPvE@Base 1.0.0~beta2
 _ZN8Shiboken10ObjectType22copyMultimpleheritanceEP13SbkObjectTypeS2_@Base 1.0.0~beta2
 _ZN8Shiboken10ObjectType24getTypeDiscoveryFunctionEP13SbkObjectType@Base 1.0.0~beta2
 _ZN8Shiboken10ObjectType24setTypeDiscoveryFunctionEP13SbkObjectTypePFS2_PvS2_E@Base 1.0.0~beta2
 _ZN8Shiboken10ObjectType25callExternalCppConversionEP13SbkObjectTypeP7_object@Base 1.0.0~beta2
 _ZN8Shiboken10ObjectType25hasExternalCppConversionsEP13SbkObjectType@Base 1.0.0~beta2
 _ZN8Shiboken10ObjectType26setTypeDiscoveryFunctionV2EP13SbkObjectTypePFPvS3_S2_E@Base 1.0.7
 _ZN8Shiboken10ObjectType29getMultipleIheritanceFunctionEP13SbkObjectType@Base 1.0.0~beta2
 _ZN8Shiboken10ObjectType29setMultipleIheritanceFunctionEP13SbkObjectTypePFPiPKvE@Base 1.0.0~beta2
 _ZN8Shiboken10ObjectType32setExternalCppConversionFunctionEP13SbkObjectTypePFPvP7_objectE@Base 1.0.0~beta2
 _ZN8Shiboken10ObjectType32setExternalIsConvertibleFunctionEP13SbkObjectTypePFbP7_objectE@Base 1.0.0~beta2
 _ZN8Shiboken10ObjectType4castEP13SbkObjectTypeP9SbkObjectP11_typeobject@Base 1.0.0~beta2
 _ZN8Shiboken10ObjectType7hasCastEP13SbkObjectType@Base 1.0.0~beta2
 _ZN8Shiboken10ObjectType9checkTypeEP11_typeobject@Base 1.0.0~beta2
 _ZN8Shiboken11Conversions10cppPointerEP11_typeobjectP9SbkObject@Base 1.1.0
 _ZN8Shiboken11Conversions12copyToPythonEP12SbkConverterPKv@Base 1.1.0
 _ZN8Shiboken11Conversions12copyToPythonEP13SbkObjectTypePKv@Base 1.1.0
 _ZN8Shiboken11Conversions12getConverterEPKc@Base 1.1.0
 _ZN8Shiboken11Conversions14checkDictTypesEP11_typeobjectS2_P7_object@Base 1.1.0
 _ZN8Shiboken11Conversions14checkPairTypesEP11_typeobjectS2_P7_object@Base 1.1.0
 _ZN8Shiboken11Conversions15createConverterEP11_typeobjectPFP7_objectPKvE@Base 1.1.0
 _ZN8Shiboken11Conversions15createConverterEP13SbkObjectTypePFvP7_objectPvEPFS7_S4_EPFS4_PKvESD_@Base 1.1.0
 _ZN8Shiboken11Conversions15deleteConverterEP12SbkConverter@Base 1.1.0
 _ZN8Shiboken11Conversions15pointerToPythonEP12SbkConverterPKv@Base 1.1.0
 _ZN8Shiboken11Conversions15pointerToPythonEP13SbkObjectTypePKv@Base 1.1.0
 _ZN8Shiboken11Conversions15pythonToCppCopyEP12SbkConverterP7_objectPv@Base 1.1.0
 _ZN8Shiboken11Conversions15pythonToCppCopyEP13SbkObjectTypeP7_objectPv@Base 1.1.0
 _ZN8Shiboken11Conversions17SpecificConverter5toCppEP7_objectPv@Base 1.1.0
 _ZN8Shiboken11Conversions17SpecificConverter8toPythonEPKv@Base 1.1.0
 _ZN8Shiboken11Conversions17SpecificConverterC1EPKc@Base 1.1.0
 _ZN8Shiboken11Conversions17SpecificConverterC2EPKc@Base 1.1.0
 _ZN8Shiboken11Conversions17referenceToPythonEP12SbkConverterPKv@Base 1.1.0
 _ZN8Shiboken11Conversions17referenceToPythonEP13SbkObjectTypePKv@Base 1.1.0
 _ZN8Shiboken11Conversions18checkSequenceTypesEP11_typeobjectP7_object@Base 1.1.0
 _ZN8Shiboken11Conversions18pythonToCppPointerEP12SbkConverterP7_objectPv@Base 1.1.0
 _ZN8Shiboken11Conversions18pythonToCppPointerEP13SbkObjectTypeP7_objectPv@Base 1.1.0
 _ZN8Shiboken11Conversions19getPythonTypeObjectEP12SbkConverter@Base 1.1.0
 _ZN8Shiboken11Conversions19getPythonTypeObjectEPKc@Base 1.1.0
 _ZN8Shiboken11Conversions20convertibleDictTypesEP12SbkConverterbS2_bP7_object@Base 1.1.0
 _ZN8Shiboken11Conversions20convertiblePairTypesEP12SbkConverterbS2_bP7_object@Base 1.1.0
 _ZN8Shiboken11Conversions20isImplicitConversionEP13SbkObjectTypePFvP7_objectPvE@Base 1.1.0
 _ZN8Shiboken11Conversions21pythonTypeIsValueTypeEP12SbkConverter@Base 1.1.0
 _ZN8Shiboken11Conversions21registerConverterNameEP12SbkConverterPKc@Base 1.1.0
 _ZN8Shiboken11Conversions22nonePythonToCppNullPtrEP7_objectPv@Base 1.1.0
 _ZN8Shiboken11Conversions22primitiveTypeConverterEi@Base 1.1.0
 _ZN8Shiboken11Conversions22pythonTypeIsObjectTypeEP12SbkConverter@Base 1.1.0
 _ZN8Shiboken11Conversions23pythonTypeIsWrapperTypeEP12SbkConverter@Base 1.1.0
 _ZN8Shiboken11Conversions24convertibleSequenceTypesEP12SbkConverterP7_object@Base 1.1.0
 _ZN8Shiboken11Conversions24convertibleSequenceTypesEP13SbkObjectTypeP7_object@Base 1.1.0
 _ZN8Shiboken11Conversions24isPythonToCppConvertibleEP12SbkConverterP7_object@Base 1.1.0
 _ZN8Shiboken11Conversions29addPythonToCppValueConversionEP12SbkConverterPFvP7_objectPvEPFS7_S4_E@Base 1.1.0
 _ZN8Shiboken11Conversions29addPythonToCppValueConversionEP13SbkObjectTypePFvP7_objectPvEPFS7_S4_E@Base 1.1.0
 _ZN8Shiboken11Conversions29isPythonToCppValueConvertibleEP13SbkObjectTypeP7_object@Base 1.1.0
 _ZN8Shiboken11Conversions29setCppPointerToPythonFunctionEP12SbkConverterPFP7_objectPKvE@Base 1.1.0
 _ZN8Shiboken11Conversions30setPythonToCppPointerFunctionsEP12SbkConverterPFvP7_objectPvEPFS7_S4_E@Base 1.1.0
 _ZN8Shiboken11Conversions31isPythonToCppPointerConvertibleEP13SbkObjectTypeP7_object@Base 1.1.0
 _ZN8Shiboken11Conversions33isPythonToCppReferenceConvertibleEP13SbkObjectTypeP7_object@Base 1.1.0
 _ZN8Shiboken12TypeResolver10pythonTypeEv@Base 1.0.0~beta2
 _ZN8Shiboken12TypeResolver18createTypeResolverEPKcPFP7_objectPvEPFvS4_PS5_EP11_typeobject@Base 1.0.0~beta2
 _ZN8Shiboken12TypeResolver3getEPKc@Base 1.0.0~beta2
 _ZN8Shiboken12TypeResolver5toCppEP7_objectPPv@Base 1.0.0~beta2
 _ZN8Shiboken12TypeResolver7getTypeEPKc@Base 1.0.0~beta2
 _ZN8Shiboken12TypeResolver8toPythonEPv@Base 1.0.0~beta2
 _ZN8Shiboken12TypeResolverC1Ev@Base 1.0.0~beta2
 _ZN8Shiboken12TypeResolverC2Ev@Base 1.0.0~beta2
 _ZN8Shiboken12TypeResolverD1Ev@Base 1.0.0~beta2
 _ZN8Shiboken12TypeResolverD2Ev@Base 1.0.0~beta2
 _ZN8Shiboken12importModuleEPKcPPP11_typeobject@Base 1.0.0~beta2
 _ZN8Shiboken14BindingManager10hasWrapperEPKv@Base 1.0.0~beta2
 _ZN8Shiboken14BindingManager11getOverrideEPKvPKc@Base 1.0.0~beta2
 _ZN8Shiboken14BindingManager11resolveTypeEPPvP13SbkObjectType@Base 1.0.7
 _ZN8Shiboken14BindingManager11resolveTypeEPvP13SbkObjectType@Base 1.0.0~beta2
 _ZN8Shiboken14BindingManager14releaseWrapperEP9SbkObject@Base 1.0.0~beta2
 _ZN8Shiboken14BindingManager15getAllPyObjectsEv@Base 1.0.0~beta2
 _ZN8Shiboken14BindingManager15registerWrapperEP9SbkObjectPv@Base 1.0.0~beta2
 _ZN8Shiboken14BindingManager15retrieveWrapperEPKv@Base 1.0.0~beta2
 _ZN8Shiboken14BindingManager17visitAllPyObjectsEPFvP9SbkObjectPvES3_@Base 1.0.0~beta2
 _ZN8Shiboken14BindingManager19addClassInheritanceEP13SbkObjectTypeS2_@Base 1.0.0~beta2
 _ZN8Shiboken14BindingManager21BindingManagerPrivate13assignWrapperEP9SbkObjectPKv@Base 1.0.0~beta2
 _ZN8Shiboken14BindingManager21BindingManagerPrivate14releaseWrapperEPv@Base 1.0.0~beta2
 _ZN8Shiboken14BindingManager8instanceEv@Base 1.0.0~beta2
 _ZN8Shiboken14BindingManagerC1Ev@Base 1.0.0~beta2
 _ZN8Shiboken14BindingManagerC2Ev@Base 1.0.0~beta2
 _ZN8Shiboken14BindingManagerD1Ev@Base 1.0.0~beta2
 _ZN8Shiboken14BindingManagerD2Ev@Base 1.0.0~beta2
 _ZN8Shiboken16ThreadStateSaver4saveEv@Base 1.0.0~beta2
 _ZN8Shiboken16ThreadStateSaver7restoreEv@Base 1.0.0~beta2
 _ZN8Shiboken16ThreadStateSaverC1Ev@Base 1.0.0~beta2
 _ZN8Shiboken16ThreadStateSaverC2Ev@Base 1.0.0~beta2
 _ZN8Shiboken16ThreadStateSaverD1Ev@Base 1.0.0~beta2
 _ZN8Shiboken16ThreadStateSaverD2Ev@Base 1.0.0~beta2
 _ZN8Shiboken18sequenceToArgcArgvEP7_objectPiPPPcPKc@Base 1.0.0~beta2
 _ZN8Shiboken18sequenceToIntArrayEP7_objectb@Base 1.0.0~beta2
 _ZN8Shiboken27setErrorAboutWrongArgumentsEP7_objectPKcPS3_@Base 1.0.0~beta2
 _ZN8Shiboken4Enum10getCppNameEP11_typeobject@Base 1.0.5
 _ZN8Shiboken4Enum15newTypeWithNameEPKcS2_@Base 1.0.5
 _ZN8Shiboken4Enum16createGlobalEnumEP7_objectPKcS4_S4_P11_typeobject@Base 1.0.6
 _ZN8Shiboken4Enum16createScopedEnumEP13SbkObjectTypePKcS4_S4_P11_typeobject@Base 1.0.6
 _ZN8Shiboken4Enum16getTypeConverterEP11_typeobject@Base 1.1.0
 _ZN8Shiboken4Enum16setTypeConverterEP11_typeobjectP12SbkConverter@Base 1.1.0
 _ZN8Shiboken4Enum20createGlobalEnumItemEP11_typeobjectP7_objectPKcl@Base 1.0.6
 _ZN8Shiboken4Enum20createScopedEnumItemEP11_typeobjectP13SbkObjectTypePKcl@Base 1.0.6
 _ZN8Shiboken4Enum20getEnumItemFromValueEP11_typeobjectl@Base 1.0.0~beta5
 _ZN8Shiboken4Enum5checkEP7_object@Base 1.0.9
 _ZN8Shiboken4Enum7newItemEP11_typeobjectlPKc@Base 1.0.0~beta2
 _ZN8Shiboken4Enum7newTypeEPKc@Base 1.0.0~beta2
 _ZN8Shiboken4Enum8getValueEP7_object@Base 1.0.0~beta2
 _ZN8Shiboken4initEv@Base 1.0.0~beta2
 _ZN8Shiboken6Buffer10getPointerEP7_objectPl@Base 1.0.4
 _ZN8Shiboken6Buffer9checkTypeEP7_object@Base 1.0.4
 _ZN8Shiboken6Buffer9newObjectEPKvl@Base 1.0.4
 _ZN8Shiboken6Buffer9newObjectEPvlNS0_4TypeE@Base 1.0.4
 _ZN8Shiboken6Module13registerTypesEP7_objectPP11_typeobject@Base 1.0.6
 _ZN8Shiboken6Module17getTypeConvertersEP7_object@Base 1.1.0
 _ZN8Shiboken6Module22registerTypeConvertersEP7_objectPP12SbkConverter@Base 1.1.0
 _ZN8Shiboken6Module6createEPKcPv@Base 1.0.6
 _ZN8Shiboken6Module6importEPKc@Base 1.0.6
 _ZN8Shiboken6Module8getTypesEP7_object@Base 1.0.6
 _ZN8Shiboken6Object10cppPointerEP9SbkObjectP11_typeobject@Base 1.0.0~beta2
 _ZN8Shiboken6Object10invalidateEP7_object@Base 1.0.0~beta2
 _ZN8Shiboken6Object10invalidateEP9SbkObject@Base 1.0.0~beta2
 _ZN8Shiboken6Object10isUserTypeEP7_object@Base 1.0.0~beta2
 _ZN8Shiboken6Object11cppPointersEP9SbkObject@Base 1.1.0
 _ZN8Shiboken6Object11setValidCppEP9SbkObjectb@Base 1.0.0~beta2
 _ZN8Shiboken6Object12getOwnershipEP7_object@Base 1.0.0~beta2
 _ZN8Shiboken6Object12getOwnershipEP9SbkObject@Base 1.0.0~beta2
 _ZN8Shiboken6Object12hasOwnershipEP9SbkObject@Base 1.0.0~beta2
 _ZN8Shiboken6Object12removeParentEP9SbkObjectbb@Base 1.0.0~beta2
 _ZN8Shiboken6Object13hasCppWrapperEP9SbkObject@Base 1.0.0~beta2
 _ZN8Shiboken6Object13hasParentInfoEP9SbkObject@Base 1.0.0~beta2
 _ZN8Shiboken6Object13keepReferenceEP9SbkObjectPKcP7_objectb@Base 1.0.0~beta2
 _ZN8Shiboken6Object13setCppPointerEP9SbkObjectP11_typeobjectPv@Base 1.0.0~beta2
 _ZN8Shiboken6Object15getTypeUserDataEP9SbkObject@Base 1.0.0~beta2
 _ZN8Shiboken6Object15removeReferenceEP9SbkObjectPKcP7_object@Base 1.0.4
 _ZN8Shiboken6Object15setTypeUserDataEP9SbkObjectPvPFvS3_E@Base 1.0.0~beta2
 _ZN8Shiboken6Object16releaseOwnershipEP7_object@Base 1.0.0~beta2
 _ZN8Shiboken6Object16releaseOwnershipEP9SbkObject@Base 1.0.0~beta2
 _ZN8Shiboken6Object16setHasCppWrapperEP9SbkObjectb@Base 1.0.0~beta2
 _ZN8Shiboken6Object18callCppDestructorsEP9SbkObject@Base 1.1.0
 _ZN8Shiboken6Object18wasCreatedByPythonEP9SbkObject@Base 1.1.0
 _ZN8Shiboken6Object4hashEP7_object@Base 1.1.2
 _ZN8Shiboken6Object4infoB5cxx11EP9SbkObject@Base 1.1.0
 _ZN8Shiboken6Object7destroyEP9SbkObject@Base 1.0.0~beta2
 _ZN8Shiboken6Object7destroyEP9SbkObjectPv@Base 1.0.0~beta2
 _ZN8Shiboken6Object7isValidEP7_object@Base 1.0.0~beta2
 _ZN8Shiboken6Object7isValidEP7_objectb@Base 1.0.4
 _ZN8Shiboken6Object7isValidEP9SbkObjectb@Base 1.0.0~beta4
 _ZN8Shiboken6Object9checkTypeEP7_object@Base 1.0.0~beta2
 _ZN8Shiboken6Object9makeValidEP9SbkObject@Base 1.0.0~beta2
 _ZN8Shiboken6Object9newObjectEP13SbkObjectTypePvbbPKc@Base 1.0.0~beta2
 _ZN8Shiboken6Object9setParentEP7_objectS2_@Base 1.0.0~beta2
 _ZN8Shiboken6String10fromFormatEPKcz@Base 1.0.9
 _ZN8Shiboken6String11fromCStringEPKc@Base 1.0.9
 _ZN8Shiboken6String11fromCStringEPKci@Base 1.1.0
 _ZN8Shiboken6String13isConvertibleEP7_object@Base 1.0.9
 _ZN8Shiboken6String17fromStringAndSizeEPKcl@Base 1.0.9
 _ZN8Shiboken6String3lenEP7_object@Base 1.0.9
 _ZN8Shiboken6String5checkEP7_object@Base 1.0.9
 _ZN8Shiboken6String6concatEPP7_objectS2_@Base 1.0.9
 _ZN8Shiboken6String7compareEP7_objectPKc@Base 1.0.9
 _ZN8Shiboken6String9checkCharEP7_object@Base 1.0.9
 _ZN8Shiboken6String9checkTypeEP11_typeobject@Base 1.0.9
 _ZN8Shiboken6String9toCStringEP7_objectPl@Base 1.1.0
 _ZN8Shiboken7warningEP7_objectiPKcz@Base 1.0.4
 _ZN8Shiboken8GilState7releaseEv@Base 1.0.0~beta2
 _ZN8Shiboken8GilStateC1Ev@Base 1.0.0~beta2
 _ZN8Shiboken8GilStateC2Ev@Base 1.0.0~beta2
 _ZN8Shiboken8GilStateD1Ev@Base 1.0.0~beta2
 _ZN8Shiboken8GilStateD2Ev@Base 1.0.0~beta2
 _ZNSt7__cxx114listIP13SbkObjectTypeSaIS2_EEaSERKS4_@Base 1.2.1
 _ZNSt8_Rb_treeIP9SbkObjectS1_St9_IdentityIS1_ESt4lessIS1_ESaIS1_EE16_M_insert_uniqueERKS1_@Base 1.0.0~beta5
 _ZNSt8_Rb_treeIP9SbkObjectS1_St9_IdentityIS1_ESt4lessIS1_ESaIS1_EE7_M_copyINS7_11_Alloc_nodeEEEPSt13_Rb_tree_nodeIS1_EPKSB_SC_RT_@Base 1.0.0~beta5
 _ZNSt8_Rb_treeIP9SbkObjectS1_St9_IdentityIS1_ESt4lessIS1_ESaIS1_EE8_M_eraseEPSt13_Rb_tree_nodeIS1_E@Base 1.0.0~beta2
